target datalayout = "e-m:e-p270:32:32-p271:32:32-p272:64:64-i64:64-i128:128-f80:128-n8:16:32:64-S128"
target triple = "x86_64-pc-linux-gnu"

%struct.archive_string = type { ptr, i64, i64 }
%struct.zip = type { %struct.archive_string, i64, i64, i64, i64, i32, ptr, %struct.archive_rb_tree, %struct.archive_rb_tree, i64, ptr, i64, i64, i64, i64, ptr, i8, i8, i8, ptr, i64, %struct.z_stream_s, i8, %struct.lzma_stream, i8, %struct.bz_stream, i8, ptr, i8, %struct.IByteIn, i64, %struct.CPpmd8, i8, i8, ptr, ptr, ptr, i32, i32, i8, ptr, ptr, i64, i64, i64, %struct.trad_enc_ctx, i8, %struct.archive_crypto_ctx, i8, ptr, i8, i32, i32, i32, i32, i32, i32, i32, ptr, ptr, ptr }
%struct.archive_rb_tree = type { ptr, ptr }
%struct.z_stream_s = type { ptr, i32, i64, ptr, i32, i64, ptr, ptr, ptr, ptr, ptr, i32, i64, i64 }
%struct.lzma_stream = type { ptr, i64, i64, ptr, i64, i64, ptr, ptr, ptr, ptr, ptr, ptr, i64, i64, i64, i64, i32, i32 }
%struct.bz_stream = type { ptr, i32, i32, i32, ptr, i32, i32, i32, ptr, ptr, ptr, ptr }
%struct.IByteIn = type { ptr, ptr }
%struct.CPpmd8 = type { ptr, ptr, ptr, i32, i32, i32, i32, i32, i32, i32, i32, ptr, ptr, ptr, ptr, ptr, i32, i32, i32, i32, i32, %union.anon, [38 x i8], [128 x i8], [38 x i32], [38 x i32], [256 x i8], [260 x i8], %struct.CPpmd_See, [24 x [32 x %struct.CPpmd_See]], [25 x [64 x i16]] }
%union.anon = type { ptr }
%struct.CPpmd_See = type { i16, i8, i8 }
%struct.trad_enc_ctx = type { [3 x i32] }
%struct.archive_crypto_ctx = type { ptr, ptr, [32 x i8], i32, [16 x i8], [16 x i8], i32 }

; Function Attrs: inlinehint nounwind uwtable
define internal i64 @archive_le64dec(ptr noundef %0) #9 {
  %2 = alloca ptr, align 8
  %3 = alloca ptr, align 8
  store ptr %0, ptr %2, align 8, !tbaa !44
  call void @llvm.lifetime.start.p0(i64 8, ptr %3) #11
  %4 = load ptr, ptr %2, align 8, !tbaa !44
  store ptr %4, ptr %3, align 8, !tbaa !45
  %5 = load ptr, ptr %3, align 8, !tbaa !45
  %6 = getelementptr inbounds i8, ptr %5, i64 4
  %7 = call i32 @archive_le32dec(ptr noundef %6)
  %8 = zext i32 %7 to i64
  %9 = shl i64 %8, 32
  %10 = load ptr, ptr %3, align 8, !tbaa !45
  %11 = call i32 @archive_le32dec(ptr noundef %10)
  %12 = zext i32 %11 to i64
  %13 = or i64 %9, %12
  call void @llvm.lifetime.end.p0(i64 8, ptr %3) #11
  ret i64 %13
}

; Function Attrs: inlinehint nounwind uwtable
define internal i32 @archive_le32dec(ptr noundef %0) #9 {
  %2 = alloca ptr, align 8
  %3 = alloca ptr, align 8
  %4 = alloca i32, align 4
  %5 = alloca i32, align 4
  %6 = alloca i32, align 4
  %7 = alloca i32, align 4
  store ptr %0, ptr %2, align 8, !tbaa !44
  call void @llvm.lifetime.start.p0(i64 8, ptr %3) #11
  %8 = load ptr, ptr %2, align 8, !tbaa !44
  store ptr %8, ptr %3, align 8, !tbaa !45
  call void @llvm.lifetime.start.p0(i64 4, ptr %4) #11
  %9 = load ptr, ptr %3, align 8, !tbaa !45
  %10 = getelementptr inbounds i8, ptr %9, i64 3
  %11 = load i8, ptr %10, align 1, !tbaa !46
  %12 = zext i8 %11 to i32
  store i32 %12, ptr %4, align 4, !tbaa !9
  call void @llvm.lifetime.start.p0(i64 4, ptr %5) #11
  %13 = load ptr, ptr %3, align 8, !tbaa !45
  %14 = getelementptr inbounds i8, ptr %13, i64 2
  %15 = load i8, ptr %14, align 1, !tbaa !46
  %16 = zext i8 %15 to i32
  store i32 %16, ptr %5, align 4, !tbaa !9
  call void @llvm.lifetime.start.p0(i64 4, ptr %6) #11
  %17 = load ptr, ptr %3, align 8, !tbaa !45
  %18 = getelementptr inbounds i8, ptr %17, i64 1
  %19 = load i8, ptr %18, align 1, !tbaa !46
  %20 = zext i8 %19 to i32
  store i32 %20, ptr %6, align 4, !tbaa !9
  call void @llvm.lifetime.start.p0(i64 4, ptr %7) #11
  %21 = load ptr, ptr %3, align 8, !tbaa !45
  %22 = getelementptr inbounds i8, ptr %21, i64 0
  %23 = load i8, ptr %22, align 1, !tbaa !46
  %24 = zext i8 %23 to i32
  store i32 %24, ptr %7, align 4, !tbaa !9
  %25 = load i32, ptr %4, align 4, !tbaa !9
  %26 = shl i32 %25, 24
  %27 = load i32, ptr %5, align 4, !tbaa !9
  %28 = shl i32 %27, 16
  %29 = or i32 %26, %28
  %30 = load i32, ptr %6, align 4, !tbaa !9
  %31 = shl i32 %30, 8
  %32 = or i32 %29, %31
  %33 = load i32, ptr %7, align 4, !tbaa !9
  %34 = or i32 %32, %33
  call void @llvm.lifetime.end.p0(i64 4, ptr %7) #11
  call void @llvm.lifetime.end.p0(i64 4, ptr %6) #11
  call void @llvm.lifetime.end.p0(i64 4, ptr %5) #11
  call void @llvm.lifetime.end.p0(i64 4, ptr %4) #11
  call void @llvm.lifetime.end.p0(i64 8, ptr %3) #11
  ret i32 %34
}

; Function Attrs: nounwind uwtable
define internal i32 @read_zip64_eocd(ptr noundef %0, ptr noundef %1, ptr noundef %2) #0 {
  %4 = alloca i32, align 4
  %5 = alloca ptr, align 8
  %6 = alloca ptr, align 8
  %7 = alloca ptr, align 8
  %8 = alloca i64, align 8
  %9 = alloca i64, align 8
  %10 = alloca i32, align 4
  store ptr %0, ptr %5, align 8, !tbaa !11
  store ptr %1, ptr %6, align 8, !tbaa !13
  store ptr %2, ptr %7, align 8, !tbaa !45
  call void @llvm.lifetime.start.p0(i64 8, ptr %8) #11
  call void @llvm.lifetime.start.p0(i64 8, ptr %9) #11
  %11 = load ptr, ptr %7, align 8, !tbaa !45
  %12 = getelementptr inbounds i8, ptr %11, i64 4
  %13 = call i32 @archive_le32dec(ptr noundef %12)
  %14 = icmp ne i32 %13, 0
  br i1 %14, label %15, label %16

15:                                               ; preds = %3
  store i32 0, ptr %4, align 4
  store i32 1, ptr %10, align 4
  br label %85

16:                                               ; preds = %3
  %17 = load ptr, ptr %7, align 8, !tbaa !45
  %18 = getelementptr inbounds i8, ptr %17, i64 16
  %19 = call i32 @archive_le32dec(ptr noundef %18)
  %20 = icmp ne i32 %19, 1
  br i1 %20, label %21, label %22

21:                                               ; preds = %16
  store i32 0, ptr %4, align 4
  store i32 1, ptr %10, align 4
  br label %85

22:                                               ; preds = %16
  %23 = load ptr, ptr %7, align 8, !tbaa !45
  %24 = getelementptr inbounds i8, ptr %23, i64 8
  %25 = call i64 @archive_le64dec(ptr noundef %24)
  store i64 %25, ptr %8, align 8, !tbaa !43
  %26 = load ptr, ptr %5, align 8, !tbaa !11
  %27 = load i64, ptr %8, align 8, !tbaa !43
  %28 = call i64 @__archive_read_seek(ptr noundef %26, i64 noundef %27, i32 noundef 0)
  %29 = icmp slt i64 %28, 0
  br i1 %29, label %30, label %31

30:                                               ; preds = %22
  store i32 0, ptr %4, align 4
  store i32 1, ptr %10, align 4
  br label %85

31:                                               ; preds = %22
  %32 = load ptr, ptr %5, align 8, !tbaa !11
  %33 = call ptr @__archive_read_ahead(ptr noundef %32, i64 noundef 56, ptr noundef null)
  store ptr %33, ptr %7, align 8, !tbaa !45
  %34 = icmp eq ptr %33, null
  br i1 %34, label %35, label %36

35:                                               ; preds = %31
  store i32 0, ptr %4, align 4
  store i32 1, ptr %10, align 4
  br label %85

36:                                               ; preds = %31
  %37 = load ptr, ptr %7, align 8, !tbaa !45
  %38 = getelementptr inbounds i8, ptr %37, i64 4
  %39 = call i64 @archive_le64dec(ptr noundef %38)
  %40 = add i64 %39, 12
  store i64 %40, ptr %9, align 8, !tbaa !43
  %41 = load i64, ptr %9, align 8, !tbaa !43
  %42 = icmp slt i64 %41, 56
  br i1 %42, label %46, label %43

43:                                               ; preds = %36
  %44 = load i64, ptr %9, align 8, !tbaa !43
  %45 = icmp sgt i64 %44, 16384
  br i1 %45, label %46, label %47

46:                                               ; preds = %43, %36
  store i32 0, ptr %4, align 4
  store i32 1, ptr %10, align 4
  br label %85

47:                                               ; preds = %43
  %48 = load ptr, ptr %5, align 8, !tbaa !11
  %49 = load i64, ptr %9, align 8, !tbaa !43
  %50 = call ptr @__archive_read_ahead(ptr noundef %48, i64 noundef %49, ptr noundef null)
  store ptr %50, ptr %7, align 8, !tbaa !45
  %51 = icmp eq ptr %50, null
  br i1 %51, label %52, label %53

52:                                               ; preds = %47
  store i32 0, ptr %4, align 4
  store i32 1, ptr %10, align 4
  br label %85

53:                                               ; preds = %47
  %54 = load ptr, ptr %7, align 8, !tbaa !45
  %55 = getelementptr inbounds i8, ptr %54, i64 16
  %56 = call i32 @archive_le32dec(ptr noundef %55)
  %57 = icmp ne i32 %56, 0
  br i1 %57, label %58, label %59

58:                                               ; preds = %53
  store i32 0, ptr %4, align 4
  store i32 1, ptr %10, align 4
  br label %85

59:                                               ; preds = %53
  %60 = load ptr, ptr %7, align 8, !tbaa !45
  %61 = getelementptr inbounds i8, ptr %60, i64 20
  %62 = call i32 @archive_le32dec(ptr noundef %61)
  %63 = icmp ne i32 %62, 0
  br i1 %63, label %64, label %65

64:                                               ; preds = %59
  store i32 0, ptr %4, align 4
  store i32 1, ptr %10, align 4
  br label %85

65:                                               ; preds = %59
  %66 = load ptr, ptr %7, align 8, !tbaa !45
  %67 = getelementptr inbounds i8, ptr %66, i64 24
  %68 = call i64 @archive_le64dec(ptr noundef %67)
  %69 = load ptr, ptr %7, align 8, !tbaa !45
  %70 = getelementptr inbounds i8, ptr %69, i64 32
  %71 = call i64 @archive_le64dec(ptr noundef %70)
  %72 = icmp ne i64 %68, %71
  br i1 %72, label %73, label %74

73:                                               ; preds = %65
  store i32 0, ptr %4, align 4
  store i32 1, ptr %10, align 4
  br label %85

74:                                               ; preds = %65
  %75 = load ptr, ptr %7, align 8, !tbaa !45
  %76 = getelementptr inbounds i8, ptr %75, i64 48
  %77 = call i64 @archive_le64dec(ptr noundef %76)
  %78 = load ptr, ptr %6, align 8, !tbaa !13
  %79 = getelementptr inbounds nuw %struct.zip, ptr %78, i32 0, i32 1
  store i64 %77, ptr %79, align 8, !tbaa !226
  %80 = load ptr, ptr %6, align 8, !tbaa !13
  %81 = getelementptr inbounds nuw %struct.zip, ptr %80, i32 0, i32 1
  %82 = load i64, ptr %81, align 8, !tbaa !226
  %83 = load ptr, ptr %6, align 8, !tbaa !13
  %84 = getelementptr inbounds nuw %struct.zip, ptr %83, i32 0, i32 2
  store i64 %82, ptr %84, align 8, !tbaa !227
  store i32 32, ptr %4, align 4
  store i32 1, ptr %10, align 4
  br label %85

85:                                               ; preds = %74, %73, %64, %58, %52, %46, %35, %30, %21, %15
  call void @llvm.lifetime.end.p0(i64 8, ptr %9) #11
  call void @llvm.lifetime.end.p0(i64 8, ptr %8) #11
  %86 = load i32, ptr %4, align 4
  ret i32 %86
}