; Function Attrs: nounwind uwtable
define internal fastcc range(i32 0, 33) i32 @read_zip64_eocd(ptr noundef %0, ptr noundef writeonly captures(none) %1, ptr noundef nonnull readonly captures(none) %2) unnamed_addr #0 {
  %4 = getelementptr inbounds nuw i8, ptr %2, i64 4
  %5 = load i32, ptr %4, align 1
  %.not = icmp eq i32 %5, 0
  br i1 %.not, label %6, label %46

6:                                                ; preds = %3
  %7 = getelementptr inbounds nuw i8, ptr %2, i64 16
  %8 = load i32, ptr %7, align 1
  %.not23 = icmp eq i32 %8, 1
  br i1 %.not23, label %9, label %46

9:                                                ; preds = %6
  %10 = getelementptr inbounds nuw i8, ptr %2, i64 8
  %.val34 = load i64, ptr %10, align 1
  %11 = tail call i64 @__archive_read_seek(ptr noundef %0, i64 noundef %.val34, i32 noundef 0) #21
  %12 = icmp slt i64 %11, 0
  br i1 %12, label %46, label %13

13:                                               ; preds = %9
  %14 = tail call ptr @__archive_read_ahead(ptr noundef %0, i64 noundef 56, ptr noundef null) #21
  %15 = icmp eq ptr %14, null
  br i1 %15, label %46, label %16

16:                                               ; preds = %13
  %17 = getelementptr inbounds nuw i8, ptr %14, i64 4
  %.val32 = load i32, ptr %17, align 1
  %18 = getelementptr i8, ptr %14, i64 8
  %.val33 = load i32, ptr %18, align 1
  %19 = zext i32 %.val33 to i64
  %20 = shl nuw i64 %19, 32
  %21 = zext i32 %.val32 to i64
  %22 = or disjoint i64 %20, %21
  %23 = add i64 %22, -16373
  %or.cond = icmp ult i64 %23, -16329
  br i1 %or.cond, label %46, label %24

24:                                               ; preds = %16
  %25 = add nuw nsw i64 %22, 12
  %26 = tail call ptr @__archive_read_ahead(ptr noundef %0, i64 noundef %25, ptr noundef null) #21
  %27 = icmp eq ptr %26, null
  br i1 %27, label %46, label %28

28:                                               ; preds = %24
  %29 = getelementptr inbounds nuw i8, ptr %26, i64 16
  %30 = load i32, ptr %29, align 1
  %.not24 = icmp eq i32 %30, 0
  br i1 %.not24, label %31, label %46

31:                                               ; preds = %28
  %32 = getelementptr inbounds nuw i8, ptr %26, i64 20
  %33 = load i32, ptr %32, align 1
  %.not25 = icmp eq i32 %33, 0
  br i1 %.not25, label %34, label %46

34:                                               ; preds = %31
  %35 = getelementptr inbounds nuw i8, ptr %26, i64 24
  %.val30 = load i64, ptr %35, align 1
  %36 = getelementptr inbounds nuw i8, ptr %26, i64 32
  %.val28 = load i64, ptr %36, align 1
  %.not26 = icmp eq i64 %.val30, %.val28
  br i1 %.not26, label %37, label %46

37:                                               ; preds = %34
  %38 = getelementptr inbounds nuw i8, ptr %26, i64 48
  %.val = load i32, ptr %38, align 1
  %39 = getelementptr i8, ptr %26, i64 52
  %.val27 = load i32, ptr %39, align 1
  %40 = zext i32 %.val27 to i64
  %41 = shl nuw i64 %40, 32
  %42 = zext i32 %.val to i64
  %43 = or disjoint i64 %41, %42
  %44 = getelementptr inbounds nuw i8, ptr %1, i64 24
  store i64 %43, ptr %44, align 8, !tbaa !114
  %45 = getelementptr inbounds nuw i8, ptr %1, i64 32
  store i64 %43, ptr %45, align 8, !tbaa !112
  br label %46

46:                                               ; preds = %34, %31, %28, %24, %16, %13, %9, %6, %3, %37
  %.0 = phi i32 [ 32, %37 ], [ 0, %3 ], [ 0, %6 ], [ 0, %9 ], [ 0, %13 ], [ 0, %16 ], [ 0, %24 ], [ 0, %28 ], [ 0, %31 ], [ 0, %34 ]
  ret i32 %.0
}